; Function Attrs: nounwind uwtable
define ptr @wolfSSL_GetSession(ptr noundef readonly captures(none) %0, ptr noundef writeonly captures(address_is_null) %1, i8 noundef zeroext %2) local_unnamed_addr #0 {
  %4 = getelementptr inbounds nuw i8, ptr %0, i64 624
  %5 = load ptr, ptr %4, align 16, !tbaa !76
  %6 = tail call i32 @wolfSSL_GetSessionFromCache(ptr noundef %0, ptr noundef %5)
  %.not = icmp eq i32 %6, 0
  br i1 %.not, label %.thread, label %7

7:                                                ; preds = %3
  %8 = load ptr, ptr %4, align 16, !tbaa !76
  %9 = icmp ne ptr %8, null
  %10 = icmp ne ptr %1, null
  %or.cond = and i1 %10, %9
  br i1 %or.cond, label %11, label %.thread

11:                                               ; preds = %7
  %12 = getelementptr inbounds nuw i8, ptr %8, i64 149
  tail call void @llvm.memcpy.p0.p0.i64(ptr noundef nonnull align 1 dereferenceable(48) %1, ptr noundef nonnull align 1 dereferenceable(48) %12, i64 48, i1 false)
  br label %.thread

.thread:                                          ; preds = %3, %11, %7
  %.012 = phi ptr [ %8, %11 ], [ %8, %7 ], [ null, %3 ]
  ret ptr %.012
}